target datalayout = "e-m:e-p270:32:32-p271:32:32-p272:64:64-i64:64-i128:128-f80:128-n8:16:32:64-S128"
target triple = "x86_64-pc-linux-gnu"

%"struct.std::atomic" = type { %"struct.std::__atomic_base" }
%"struct.std::__atomic_base" = type { i64 }
%"struct.std::array" = type { [16 x i8] }
%"struct.std::__detail::_Node_iterator_base" = type { ptr }
%"class.Luau::CodeGen::SharedCodeAllocator" = type { %"class.std::mutex", %"class.std::unordered_map", %"struct.std::atomic", ptr }
%"class.std::mutex" = type { %"class.std::__mutex_base" }
%"class.std::__mutex_base" = type { %union.pthread_mutex_t }
%union.pthread_mutex_t = type { %struct.__pthread_mutex_s }
%struct.__pthread_mutex_s = type { i32, i32, i32, i32, i32, i16, i16, %struct.__pthread_internal_list }
%struct.__pthread_internal_list = type { ptr, ptr }
%"class.std::unordered_map" = type { %"class.std::_Hashtable" }
%"class.std::_Hashtable" = type { ptr, i64, %"struct.std::__detail::_Hash_node_base", i64, %"struct.std::__detail::_Prime_rehash_policy", ptr }
%"struct.std::__detail::_Hash_node_base" = type { ptr }
%"struct.std::__detail::_Prime_rehash_policy" = type { float, i64 }
%"class.Luau::CodeGen::NativeModuleRef" = type { ptr }
%"struct.std::__detail::_Node_const_iterator" = type { %"struct.std::__detail::_Node_iterator_base" }
%"struct.std::pair.28" = type { %"struct.std::array", %"class.std::unique_ptr.20" }
%"class.std::unique_ptr.20" = type { %"struct.std::__uniq_ptr_data.21" }
%"struct.std::__uniq_ptr_data.21" = type { %"class.std::__uniq_ptr_impl.22" }
%"class.std::__uniq_ptr_impl.22" = type { %"class.std::tuple.23" }
%"class.std::tuple.23" = type { %"struct.std::_Tuple_impl.24" }
%"struct.std::_Tuple_impl.24" = type { %"struct.std::_Head_base.27" }
%"struct.std::_Head_base.27" = type { ptr }
%"struct.std::__detail::_Hash_node_value_base" = type { %"struct.__gnu_cxx::__aligned_buffer" }
%"struct.__gnu_cxx::__aligned_buffer" = type { %"union.std::aligned_storage<24, 8>::type" }
%"union.std::aligned_storage<24, 8>::type" = type { [24 x i8] }

@_ZN4Luau7CodeGen15NativeModuleRefC1EPKNS0_12NativeModuleE = dso_local unnamed_addr alias void (ptr, ptr), ptr @_ZN4Luau7CodeGen15NativeModuleRefC2EPKNS0_12NativeModuleE

; Function Attrs: mustprogress nounwind uwtable
define linkonce_odr dso_local noundef nonnull align 8 dereferenceable(8) ptr @_ZNSt10_Head_baseILm0EPN4Luau7CodeGen12NativeModuleELb0EE7_M_headERKS4_(ptr noundef nonnull align 8 dereferenceable(8) %0) #0 comdat align 2 {
  %2 = alloca ptr, align 8
  store ptr %0, ptr %2, align 8
  %3 = load ptr, ptr %2, align 8
  %4 = getelementptr inbounds %"struct.std::_Head_base.27", ptr %3, i32 0, i32 0
  ret ptr %4
}

; Function Attrs: mustprogress nounwind uwtable
define linkonce_odr dso_local noundef nonnull align 8 dereferenceable(8) ptr @_ZNSt11_Tuple_implILm0EJPN4Luau7CodeGen12NativeModuleESt14default_deleteIS2_EEE7_M_headERKS6_(ptr noundef nonnull align 8 dereferenceable(8) %0) #0 comdat align 2 {
  %2 = alloca ptr, align 8
  store ptr %0, ptr %2, align 8
  %3 = load ptr, ptr %2, align 8
  %4 = call noundef nonnull align 8 dereferenceable(8) ptr @_ZNSt10_Head_baseILm0EPN4Luau7CodeGen12NativeModuleELb0EE7_M_headERKS4_(ptr noundef nonnull align 8 dereferenceable(8) %3) #14
  ret ptr %4
}

; Function Attrs: mustprogress nounwind uwtable
define linkonce_odr dso_local noundef nonnull align 8 dereferenceable(8) ptr @_ZSt12__get_helperILm0EPN4Luau7CodeGen12NativeModuleEJSt14default_deleteIS2_EEERKT0_RKSt11_Tuple_implIXT_EJS6_DpT1_EE(ptr noundef nonnull align 8 dereferenceable(8) %0) #0 comdat {
  %2 = alloca ptr, align 8
  store ptr %0, ptr %2, align 8
  %3 = load ptr, ptr %2, align 8
  %4 = call noundef nonnull align 8 dereferenceable(8) ptr @_ZNSt11_Tuple_implILm0EJPN4Luau7CodeGen12NativeModuleESt14default_deleteIS2_EEE7_M_headERKS6_(ptr noundef nonnull align 8 dereferenceable(8) %3) #14
  ret ptr %4
}

; Function Attrs: mustprogress nounwind uwtable
define linkonce_odr dso_local noundef ptr @_ZN9__gnu_cxx16__aligned_bufferISt4pairIKSt5arrayIhLm16EESt10unique_ptrIN4Luau7CodeGen12NativeModuleESt14default_deleteIS8_EEEE7_M_addrEv(ptr noundef nonnull align 8 dereferenceable(24) %0) #0 comdat align 2 {
  %2 = alloca ptr, align 8
  store ptr %0, ptr %2, align 8
  %3 = load ptr, ptr %2, align 8
  %4 = getelementptr inbounds %"struct.__gnu_cxx::__aligned_buffer", ptr %3, i32 0, i32 0
  ret ptr %4
}

; Function Attrs: mustprogress nounwind uwtable
define linkonce_odr dso_local void @_ZNSt8__detail19_Node_iterator_baseISt4pairIKSt5arrayIhLm16EESt10unique_ptrIN4Luau7CodeGen12NativeModuleESt14default_deleteIS8_EEELb0EEC2EPNS_10_Hash_nodeISC_Lb0EEE(ptr noundef nonnull align 8 dereferenceable(8) %0, ptr noundef %1) unnamed_addr #0 comdat align 2 {
  %3 = alloca ptr, align 8
  %4 = alloca ptr, align 8
  store ptr %0, ptr %3, align 8
  store ptr %1, ptr %4, align 8
  %5 = load ptr, ptr %3, align 8
  %6 = getelementptr inbounds %"struct.std::__detail::_Node_iterator_base", ptr %5, i32 0, i32 0
  %7 = load ptr, ptr %4, align 8
  store ptr %7, ptr %6, align 8
  ret void
}

; Function Attrs: mustprogress nounwind uwtable
define linkonce_odr dso_local noundef nonnull align 8 dereferenceable(8) ptr @_ZSt3getILm0EJPN4Luau7CodeGen12NativeModuleESt14default_deleteIS2_EEERKNSt13tuple_elementIXT_ESt5tupleIJDpT0_EEE4typeERKSA_(ptr noundef nonnull align 8 dereferenceable(8) %0) #0 comdat {
  %2 = alloca ptr, align 8
  store ptr %0, ptr %2, align 8
  %3 = load ptr, ptr %2, align 8
  %4 = call noundef nonnull align 8 dereferenceable(8) ptr @_ZSt12__get_helperILm0EPN4Luau7CodeGen12NativeModuleEJSt14default_deleteIS2_EEERKT0_RKSt11_Tuple_implIXT_EJS6_DpT1_EE(ptr noundef nonnull align 8 dereferenceable(8) %3) #14
  ret ptr %4
}

; Function Attrs: mustprogress nounwind uwtable
define linkonce_odr dso_local noundef ptr @_ZN9__gnu_cxx16__aligned_bufferISt4pairIKSt5arrayIhLm16EESt10unique_ptrIN4Luau7CodeGen12NativeModuleESt14default_deleteIS8_EEEE6_M_ptrEv(ptr noundef nonnull align 8 dereferenceable(24) %0) #0 comdat align 2 {
  %2 = alloca ptr, align 8
  store ptr %0, ptr %2, align 8
  %3 = load ptr, ptr %2, align 8
  %4 = call noundef ptr @_ZN9__gnu_cxx16__aligned_bufferISt4pairIKSt5arrayIhLm16EESt10unique_ptrIN4Luau7CodeGen12NativeModuleESt14default_deleteIS8_EEEE7_M_addrEv(ptr noundef nonnull align 8 dereferenceable(24) %3) #14
  ret ptr %4
}

; Function Attrs: mustprogress nounwind uwtable
define linkonce_odr dso_local void @_ZNSt8__detail20_Node_const_iteratorISt4pairIKSt5arrayIhLm16EESt10unique_ptrIN4Luau7CodeGen12NativeModuleESt14default_deleteIS8_EEELb0ELb0EEC2EPNS_10_Hash_nodeISC_Lb0EEE(ptr noundef nonnull align 8 dereferenceable(8) %0, ptr noundef %1) unnamed_addr #0 comdat align 2 {
  %3 = alloca ptr, align 8
  %4 = alloca ptr, align 8
  store ptr %0, ptr %3, align 8
  store ptr %1, ptr %4, align 8
  %5 = load ptr, ptr %3, align 8
  %6 = load ptr, ptr %4, align 8
  call void @_ZNSt8__detail19_Node_iterator_baseISt4pairIKSt5arrayIhLm16EESt10unique_ptrIN4Luau7CodeGen12NativeModuleESt14default_deleteIS8_EEELb0EEC2EPNS_10_Hash_nodeISC_Lb0EEE(ptr noundef nonnull align 8 dereferenceable(8) %5, ptr noundef %6) #14
  ret void
}

; Function Attrs: mustprogress nounwind uwtable
define linkonce_odr dso_local noundef ptr @_ZNKSt15__uniq_ptr_implIN4Luau7CodeGen12NativeModuleESt14default_deleteIS2_EE6_M_ptrEv(ptr noundef nonnull align 8 dereferenceable(8) %0) #0 comdat align 2 {
  %2 = alloca ptr, align 8
  store ptr %0, ptr %2, align 8
  %3 = load ptr, ptr %2, align 8
  %4 = getelementptr inbounds %"class.std::__uniq_ptr_impl.22", ptr %3, i32 0, i32 0
  %5 = call noundef nonnull align 8 dereferenceable(8) ptr @_ZSt3getILm0EJPN4Luau7CodeGen12NativeModuleESt14default_deleteIS2_EEERKNSt13tuple_elementIXT_ESt5tupleIJDpT0_EEE4typeERKSA_(ptr noundef nonnull align 8 dereferenceable(8) %4) #14
  %6 = load ptr, ptr %5, align 8
  ret ptr %6
}

; Function Attrs: mustprogress nounwind uwtable
define linkonce_odr dso_local noundef ptr @_ZNSt8__detail21_Hash_node_value_baseISt4pairIKSt5arrayIhLm16EESt10unique_ptrIN4Luau7CodeGen12NativeModuleESt14default_deleteIS8_EEEE9_M_valptrEv(ptr noundef nonnull align 8 dereferenceable(24) %0) #0 comdat align 2 {
  %2 = alloca ptr, align 8
  store ptr %0, ptr %2, align 8
  %3 = load ptr, ptr %2, align 8
  %4 = getelementptr inbounds %"struct.std::__detail::_Hash_node_value_base", ptr %3, i32 0, i32 0
  %5 = call noundef ptr @_ZN9__gnu_cxx16__aligned_bufferISt4pairIKSt5arrayIhLm16EESt10unique_ptrIN4Luau7CodeGen12NativeModuleESt14default_deleteIS8_EEEE6_M_ptrEv(ptr noundef nonnull align 8 dereferenceable(24) %4) #14
  ret ptr %5
}

; Function Attrs: mustprogress nounwind uwtable
define linkonce_odr dso_local ptr @_ZNKSt10_HashtableISt5arrayIhLm16EESt4pairIKS1_St10unique_ptrIN4Luau7CodeGen12NativeModuleESt14default_deleteIS7_EEESaISB_ENSt8__detail10_Select1stESt8equal_toIvENS6_19SharedCodeAllocator12ModuleIdHashENSD_18_Mod_range_hashingENSD_20_Default_ranged_hashENSD_20_Prime_rehash_policyENSD_17_Hashtable_traitsILb0ELb0ELb1EEEE3endEv(ptr noundef nonnull align 8 dereferenceable(56) %0) #0 comdat align 2 {
  %2 = alloca %"struct.std::__detail::_Node_const_iterator", align 8
  %3 = alloca ptr, align 8
  store ptr %0, ptr %3, align 8
  call void @_ZNSt8__detail20_Node_const_iteratorISt4pairIKSt5arrayIhLm16EESt10unique_ptrIN4Luau7CodeGen12NativeModuleESt14default_deleteIS8_EEELb0ELb0EEC2EPNS_10_Hash_nodeISC_Lb0EEE(ptr noundef nonnull align 8 dereferenceable(8) %2, ptr noundef null) #14
  %4 = getelementptr inbounds %"struct.std::__detail::_Node_const_iterator", ptr %2, i32 0, i32 0
  %5 = getelementptr inbounds %"struct.std::__detail::_Node_iterator_base", ptr %4, i32 0, i32 0
  %6 = load ptr, ptr %5, align 8
  ret ptr %6
}

; Function Attrs: mustprogress nounwind uwtable
define linkonce_odr dso_local noundef ptr @_ZNKSt10unique_ptrIN4Luau7CodeGen12NativeModuleESt14default_deleteIS2_EE3getEv(ptr noundef nonnull align 8 dereferenceable(8) %0) #0 comdat align 2 {
  %2 = alloca ptr, align 8
  store ptr %0, ptr %2, align 8
  %3 = load ptr, ptr %2, align 8
  %4 = getelementptr inbounds %"class.std::unique_ptr.20", ptr %3, i32 0, i32 0
  %5 = call noundef ptr @_ZNKSt15__uniq_ptr_implIN4Luau7CodeGen12NativeModuleESt14default_deleteIS2_EE6_M_ptrEv(ptr noundef nonnull align 8 dereferenceable(8) %4) #14
  ret ptr %5
}

; Function Attrs: mustprogress nounwind uwtable
define linkonce_odr dso_local noundef ptr @_ZNKSt8__detail20_Node_const_iteratorISt4pairIKSt5arrayIhLm16EESt10unique_ptrIN4Luau7CodeGen12NativeModuleESt14default_deleteIS8_EEELb0ELb0EEptEv(ptr noundef nonnull align 8 dereferenceable(8) %0) #0 comdat align 2 {
  %2 = alloca ptr, align 8
  store ptr %0, ptr %2, align 8
  %3 = load ptr, ptr %2, align 8
  %4 = getelementptr inbounds %"struct.std::__detail::_Node_iterator_base", ptr %3, i32 0, i32 0
  %5 = load ptr, ptr %4, align 8
  %6 = getelementptr inbounds i8, ptr %5, i64 8
  %7 = call noundef ptr @_ZNSt8__detail21_Hash_node_value_baseISt4pairIKSt5arrayIhLm16EESt10unique_ptrIN4Luau7CodeGen12NativeModuleESt14default_deleteIS8_EEEE9_M_valptrEv(ptr noundef nonnull align 8 dereferenceable(24) %6) #14
  ret ptr %7
}

; Function Attrs: mustprogress nounwind uwtable
define linkonce_odr dso_local void @_ZN4Luau7CodeGen15NativeModuleRefC2Ev(ptr noundef nonnull align 8 dereferenceable(8) %0) unnamed_addr #0 comdat align 2 {
  %2 = alloca ptr, align 8
  store ptr %0, ptr %2, align 8
  %3 = load ptr, ptr %2, align 8
  %4 = getelementptr inbounds %"class.Luau::CodeGen::NativeModuleRef", ptr %3, i32 0, i32 0
  store ptr null, ptr %4, align 8
  ret void
}

; Function Attrs: mustprogress nounwind uwtable
define linkonce_odr dso_local noundef zeroext i1 @_ZNSt8__detaileqERKNS_19_Node_iterator_baseISt4pairIKSt5arrayIhLm16EESt10unique_ptrIN4Luau7CodeGen12NativeModuleESt14default_deleteIS8_EEELb0EEESF_(ptr noundef nonnull align 8 dereferenceable(8) %0, ptr noundef nonnull align 8 dereferenceable(8) %1) #0 comdat {
  %3 = alloca ptr, align 8
  %4 = alloca ptr, align 8
  store ptr %0, ptr %3, align 8
  store ptr %1, ptr %4, align 8
  %5 = load ptr, ptr %3, align 8
  %6 = getelementptr inbounds %"struct.std::__detail::_Node_iterator_base", ptr %5, i32 0, i32 0
  %7 = load ptr, ptr %6, align 8
  %8 = load ptr, ptr %4, align 8
  %9 = getelementptr inbounds %"struct.std::__detail::_Node_iterator_base", ptr %8, i32 0, i32 0
  %10 = load ptr, ptr %9, align 8
  %11 = icmp eq ptr %7, %10
  ret i1 %11
}

; Function Attrs: mustprogress nounwind uwtable
define linkonce_odr dso_local ptr @_ZNKSt13unordered_mapISt5arrayIhLm16EESt10unique_ptrIN4Luau7CodeGen12NativeModuleESt14default_deleteIS5_EENS4_19SharedCodeAllocator12ModuleIdHashESt8equal_toIvESaISt4pairIKS1_S8_EEE3endEv(ptr noundef nonnull align 8 dereferenceable(56) %0) #0 comdat align 2 {
  %2 = alloca %"struct.std::__detail::_Node_const_iterator", align 8
  %3 = alloca ptr, align 8
  store ptr %0, ptr %3, align 8
  %4 = load ptr, ptr %3, align 8
  %5 = getelementptr inbounds %"class.std::unordered_map", ptr %4, i32 0, i32 0
  %6 = call ptr @_ZNKSt10_HashtableISt5arrayIhLm16EESt4pairIKS1_St10unique_ptrIN4Luau7CodeGen12NativeModuleESt14default_deleteIS7_EEESaISB_ENSt8__detail10_Select1stESt8equal_toIvENS6_19SharedCodeAllocator12ModuleIdHashENSD_18_Mod_range_hashingENSD_20_Default_ranged_hashENSD_20_Prime_rehash_policyENSD_17_Hashtable_traitsILb0ELb0ELb1EEEE3endEv(ptr noundef nonnull align 8 dereferenceable(56) %5) #14
  %7 = getelementptr inbounds %"struct.std::__detail::_Node_const_iterator", ptr %2, i32 0, i32 0
  %8 = getelementptr inbounds %"struct.std::__detail::_Node_iterator_base", ptr %7, i32 0, i32 0
  store ptr %6, ptr %8, align 8
  %9 = getelementptr inbounds %"struct.std::__detail::_Node_const_iterator", ptr %2, i32 0, i32 0
  %10 = getelementptr inbounds %"struct.std::__detail::_Node_iterator_base", ptr %9, i32 0, i32 0
  %11 = load ptr, ptr %10, align 8
  ret ptr %11
}

; Function Attrs: mustprogress uwtable
define linkonce_odr dso_local ptr @_ZNKSt13unordered_mapISt5arrayIhLm16EESt10unique_ptrIN4Luau7CodeGen12NativeModuleESt14default_deleteIS5_EENS4_19SharedCodeAllocator12ModuleIdHashESt8equal_toIvESaISt4pairIKS1_S8_EEE4findERSE_(ptr noundef nonnull align 8 dereferenceable(56) %0, ptr noundef nonnull align 1 dereferenceable(16) %1) #3 comdat align 2 {
  %3 = alloca %"struct.std::__detail::_Node_const_iterator", align 8
  %4 = alloca ptr, align 8
  %5 = alloca ptr, align 8
  store ptr %0, ptr %4, align 8
  store ptr %1, ptr %5, align 8
  %6 = load ptr, ptr %4, align 8
  %7 = getelementptr inbounds %"class.std::unordered_map", ptr %6, i32 0, i32 0
  %8 = load ptr, ptr %5, align 8
  %9 = call ptr @_ZNKSt10_HashtableISt5arrayIhLm16EESt4pairIKS1_St10unique_ptrIN4Luau7CodeGen12NativeModuleESt14default_deleteIS7_EEESaISB_ENSt8__detail10_Select1stESt8equal_toIvENS6_19SharedCodeAllocator12ModuleIdHashENSD_18_Mod_range_hashingENSD_20_Default_ranged_hashENSD_20_Prime_rehash_policyENSD_17_Hashtable_traitsILb0ELb0ELb1EEEE4findERS3_(ptr noundef nonnull align 8 dereferenceable(56) %7, ptr noundef nonnull align 1 dereferenceable(16) %8)
  %10 = getelementptr inbounds %"struct.std::__detail::_Node_const_iterator", ptr %3, i32 0, i32 0
  %11 = getelementptr inbounds %"struct.std::__detail::_Node_iterator_base", ptr %10, i32 0, i32 0
  store ptr %9, ptr %11, align 8
  %12 = getelementptr inbounds %"struct.std::__detail::_Node_const_iterator", ptr %3, i32 0, i32 0
  %13 = getelementptr inbounds %"struct.std::__detail::_Node_iterator_base", ptr %12, i32 0, i32 0
  %14 = load ptr, ptr %13, align 8
  ret ptr %14
}

; Function Attrs: mustprogress nounwind uwtable
define dso_local void @_ZNK4Luau7CodeGen19SharedCodeAllocator30tryGetNativeModuleWithLockHeldERKSt5arrayIhLm16EE(ptr dead_on_unwind noalias writable sret(%"class.Luau::CodeGen::NativeModuleRef") align 8 %0, ptr noundef nonnull align 8 dereferenceable(112) %1, ptr noundef nonnull align 1 dereferenceable(16) %2) #0 align 2 personality ptr @__gxx_personality_v0 {
  %4 = alloca ptr, align 8
  %5 = alloca ptr, align 8
  %6 = alloca ptr, align 8
  %7 = alloca %"struct.std::__detail::_Node_const_iterator", align 8
  %8 = alloca %"struct.std::__detail::_Node_const_iterator", align 8
  store ptr %0, ptr %4, align 8
  store ptr %1, ptr %5, align 8
  store ptr %2, ptr %6, align 8
  %9 = load ptr, ptr %5, align 8
  %10 = getelementptr inbounds %"class.Luau::CodeGen::SharedCodeAllocator", ptr %9, i32 0, i32 1
  %11 = load ptr, ptr %6, align 8
  %12 = invoke ptr @_ZNKSt13unordered_mapISt5arrayIhLm16EESt10unique_ptrIN4Luau7CodeGen12NativeModuleESt14default_deleteIS5_EENS4_19SharedCodeAllocator12ModuleIdHashESt8equal_toIvESaISt4pairIKS1_S8_EEE4findERSE_(ptr noundef nonnull align 8 dereferenceable(56) %10, ptr noundef nonnull align 1 dereferenceable(16) %11)
          to label %13 unwind label %27

13:                                               ; preds = %3
  %14 = getelementptr inbounds %"struct.std::__detail::_Node_const_iterator", ptr %7, i32 0, i32 0
  %15 = getelementptr inbounds %"struct.std::__detail::_Node_iterator_base", ptr %14, i32 0, i32 0
  store ptr %12, ptr %15, align 8
  %16 = getelementptr inbounds %"class.Luau::CodeGen::SharedCodeAllocator", ptr %9, i32 0, i32 1
  %17 = call ptr @_ZNKSt13unordered_mapISt5arrayIhLm16EESt10unique_ptrIN4Luau7CodeGen12NativeModuleESt14default_deleteIS5_EENS4_19SharedCodeAllocator12ModuleIdHashESt8equal_toIvESaISt4pairIKS1_S8_EEE3endEv(ptr noundef nonnull align 8 dereferenceable(56) %16) #14
  %18 = getelementptr inbounds %"struct.std::__detail::_Node_const_iterator", ptr %8, i32 0, i32 0
  %19 = getelementptr inbounds %"struct.std::__detail::_Node_iterator_base", ptr %18, i32 0, i32 0
  store ptr %17, ptr %19, align 8
  %20 = call noundef zeroext i1 @_ZNSt8__detaileqERKNS_19_Node_iterator_baseISt4pairIKSt5arrayIhLm16EESt10unique_ptrIN4Luau7CodeGen12NativeModuleESt14default_deleteIS8_EEELb0EEESF_(ptr noundef nonnull align 8 dereferenceable(8) %7, ptr noundef nonnull align 8 dereferenceable(8) %8) #14
  br i1 %20, label %21, label %22

21:                                               ; preds = %13
  call void @llvm.memset.p0.i64(ptr align 8 %0, i8 0, i64 8, i1 false)
  call void @_ZN4Luau7CodeGen15NativeModuleRefC2Ev(ptr noundef nonnull align 8 dereferenceable(8) %0) #14
  br label %26

22:                                               ; preds = %13
  %23 = call noundef ptr @_ZNKSt8__detail20_Node_const_iteratorISt4pairIKSt5arrayIhLm16EESt10unique_ptrIN4Luau7CodeGen12NativeModuleESt14default_deleteIS8_EEELb0ELb0EEptEv(ptr noundef nonnull align 8 dereferenceable(8) %7) #14
  %24 = getelementptr inbounds %"struct.std::pair.28", ptr %23, i32 0, i32 1
  %25 = call noundef ptr @_ZNKSt10unique_ptrIN4Luau7CodeGen12NativeModuleESt14default_deleteIS2_EE3getEv(ptr noundef nonnull align 8 dereferenceable(8) %24) #14
  call void @_ZN4Luau7CodeGen15NativeModuleRefC1EPKNS0_12NativeModuleE(ptr noundef nonnull align 8 dereferenceable(8) %0, ptr noundef %25) #14
  br label %26

26:                                               ; preds = %22, %21
  ret void

27:                                               ; preds = %3
  %28 = landingpad { ptr, i32 }
          catch ptr null
  %29 = extractvalue { ptr, i32 } %28, 0
  call void @__clang_call_terminate(ptr %29) #15
  unreachable
}