; Function Attrs: mustprogress nounwind uwtable
define dso_local void @_ZNK4Luau7CodeGen19SharedCodeAllocator30tryGetNativeModuleWithLockHeldERKSt5arrayIhLm16EE(ptr dead_on_unwind noalias nocapture writable writeonly sret(%"class.Luau::CodeGen::NativeModuleRef") align 8 %0, ptr noundef nonnull align 8 dereferenceable(112) %1, ptr noundef nonnull align 1 dereferenceable(16) %2) local_unnamed_addr #0 align 2 personality ptr @__gxx_personality_v0 {
  %4 = getelementptr inbounds i8, ptr %1, i64 40
  %5 = invoke ptr @_ZNKSt10_HashtableISt5arrayIhLm16EESt4pairIKS1_St10unique_ptrIN4Luau7CodeGen12NativeModuleESt14default_deleteIS7_EEESaISB_ENSt8__detail10_Select1stESt8equal_toIvENS6_19SharedCodeAllocator12ModuleIdHashENSD_18_Mod_range_hashingENSD_20_Default_ranged_hashENSD_20_Prime_rehash_policyENSD_17_Hashtable_traitsILb0ELb0ELb1EEEE4findERS3_(ptr noundef nonnull align 8 dereferenceable(56) %4, ptr noundef nonnull align 1 dereferenceable(16) %2)
          to label %_ZNKSt13unordered_mapISt5arrayIhLm16EESt10unique_ptrIN4Luau7CodeGen12NativeModuleESt14default_deleteIS5_EENS4_19SharedCodeAllocator12ModuleIdHashESt8equal_toIvESaISt4pairIKS1_S8_EEE4findERSE_.exit unwind label %13

_ZNKSt13unordered_mapISt5arrayIhLm16EESt10unique_ptrIN4Luau7CodeGen12NativeModuleESt14default_deleteIS5_EENS4_19SharedCodeAllocator12ModuleIdHashESt8equal_toIvESaISt4pairIKS1_S8_EEE4findERSE_.exit: ; preds = %3
  %6 = icmp eq ptr %5, null
  br i1 %6, label %7, label %8

7:                                                ; preds = %_ZNKSt13unordered_mapISt5arrayIhLm16EESt10unique_ptrIN4Luau7CodeGen12NativeModuleESt14default_deleteIS5_EENS4_19SharedCodeAllocator12ModuleIdHashESt8equal_toIvESaISt4pairIKS1_S8_EEE4findERSE_.exit
  store ptr null, ptr %0, align 8
  br label %_ZN4Luau7CodeGen15NativeModuleRefC2EPKNS0_12NativeModuleE.exit

8:                                                ; preds = %_ZNKSt13unordered_mapISt5arrayIhLm16EESt10unique_ptrIN4Luau7CodeGen12NativeModuleESt14default_deleteIS5_EENS4_19SharedCodeAllocator12ModuleIdHashESt8equal_toIvESaISt4pairIKS1_S8_EEE4findERSE_.exit
  %9 = getelementptr inbounds i8, ptr %5, i64 24
  %10 = load ptr, ptr %9, align 8
  store ptr %10, ptr %0, align 8
  %.not.i = icmp eq ptr %10, null
  br i1 %.not.i, label %_ZN4Luau7CodeGen15NativeModuleRefC2EPKNS0_12NativeModuleE.exit, label %11

11:                                               ; preds = %8
  %12 = atomicrmw add ptr %10, i64 1 seq_cst, align 8
  br label %_ZN4Luau7CodeGen15NativeModuleRefC2EPKNS0_12NativeModuleE.exit

_ZN4Luau7CodeGen15NativeModuleRefC2EPKNS0_12NativeModuleE.exit: ; preds = %11, %8, %7
  ret void

13:                                               ; preds = %3
  %14 = landingpad { ptr, i32 }
          catch ptr null
  %15 = extractvalue { ptr, i32 } %14, 0
  tail call void @__clang_call_terminate(ptr %15) #21
  unreachable
}